Certificate:
    Data:
        Version: 3 (0x2)
        Serial Number: 1 (0x1)
        Signature Algorithm: sha256WithRSAEncryption
        Issuer: CN=devcert
        Validity
            Not Before: May 31 13:54:05 2020 GMT
            Not After : Sep  3 13:54:05 2022 GMT
        Subject: CN=localhost
        Subject Public Key Info:
            Public Key Algorithm: rsaEncryption
                RSA Public-Key: (2048 bit)
                Modulus:
                    00:d2:1d:68:8a:9c:86:c1:ea:39:08:76:4c:3b:c9:
                    f1:ae:92:7d:35:46:f6:86:e9:47:51:87:71:70:e8:
                    c5:7e:a1:32:63:d3:73:c0:59:bf:07:5a:d8:0c:7b:
                    bf:67:47:3b:7e:e9:47:b6:28:aa:5c:16:a0:3d:24:
                    08:d1:e8:37:0d:8e:1f:dc:97:ba:02:c3:e9:fe:5f:
                    aa:6f:94:19:13:13:8d:98:a3:8e:60:fb:5d:9b:f0:
                    ed:f6:6a:1f:7e:1d:d1:e8:76:00:4a:f5:f7:74:95:
                    5a:7d:d4:da:a6:64:41:84:e2:0c:08:d0:3c:15:c4:
                    88:2c:56:af:99:17:ad:5a:20:bc:f7:9d:a0:17:9e:
                    c7:3f:17:1c:33:ba:ee:df:d2:1a:d6:16:ac:54:19:
                    09:71:b1:75:08:8e:37:09:77:67:7d:39:06:0c:c3:
                    a5:c2:f0:2c:3a:63:d4:78:ab:77:3a:59:2c:af:b2:
                    82:d5:9e:3b:47:a8:a8:9b:5e:a4:c1:a0:e2:81:ef:
                    79:92:79:ea:ab:ff:23:28:5d:05:ad:33:de:49:ae:
                    e6:ab:4b:17:cd:1c:d5:9d:99:9b:0c:83:6e:af:a3:
                    92:7c:ee:3f:b0:b2:70:e2:bf:82:13:90:94:ef:a5:
                    84:79:88:6c:17:2e:27:88:f3:92:06:b0:52:66:fa:
                    84:21
                Exponent: 65537 (0x10001)
        X509v3 extensions:
            X509v3 Basic Constraints: critical
                CA:FALSE
            X509v3 Subject Key Identifier: 
                47:A5:0A:43:58:E7:9C:92:89:F2:AB:E5:AC:5E:C2:64:BD:62:5F:2A
            X509v3 Authority Key Identifier: 
                keyid:D2:32:5F:46:8E:68:57:0B:12:65:6E:B7:FE:FE:89:E9:EF:5F:45:74
                DirName:/CN=devcert
                serial:15:F3:96:04:53:B2:73:66:97:26:36:EB:29:FA:A1:3F:EA:3E:04:FE

            X509v3 Key Usage: critical
                Digital Signature, Key Encipherment
            X509v3 Extended Key Usage: 
                TLS Web Server Authentication
            X509v3 Subject Alternative Name: 
                DNS:localhost, DNS:*.localhost
    Signature Algorithm: sha256WithRSAEncryption
         58:e7:3b:ab:5b:ea:7d:81:c1:1e:49:33:23:91:c3:aa:9a:f0:
         b5:0a:e2:9a:41:9f:3e:d3:80:cc:c4:e5:12:32:37:e3:8c:e2:
         a1:7b:ff:72:c8:f9:0e:40:38:b1:b2:c3:98:84:0b:60:82:a6:
         cc:ce:dd:1e:d5:d1:eb:82:21:41:91:26:54:bc:4d:de:18:91:
         41:ea:62:f3:5a:4a:5b:af:57:9c:2f:a3:e2:2f:3c:73:33:bc:
         c1:92:a5:5e:27:ca:d5:7f:9b:06:14:42:06:9f:24:47:15:13:
         4c:71:48:db:04:ea:30:0a:19:45:f0:2c:df:a6:71:06:29:88:
         4b:c8:1c:09:52:eb:1c:f5:a9:7f:cc:83:5f:04:ea:c6:72:75:
         6b:51:87:29:68:a5:34:a1:cb:99:d8:86:d1:d5:b2:00:7e:20:
         77:e6:64:b9:29:b7:e3:09:04:9f:c5:09:fa:ef:22:5f:c8:15:
         b5:1a:b3:61:0d:26:5f:44:83:47:51:20:3a:c7:58:46:8e:03:
         f8:66:a9:f0:bb:ae:03:a9:33:03:58:59:2b:9e:21:8e:de:ca:
         cb:0f:d4:8a:e6:69:63:95:78:f3:a1:e1:4d:3e:48:11:3c:b3:
         86:0e:42:05:b6:bb:a4:92:cb:cd:84:e0:da:80:41:cc:0b:c0:
         f5:94:f0:55
-----BEGIN CERTIFICATE-----
MIIDaTCCAlGgAwIBAgIBATANBgkqhkiG9w0BAQsFADASMRAwDgYDVQQDDAdkZXZj
ZXJ0MB4XDTIwMDUzMTEzNTQwNVoXDTIyMDkwMzEzNTQwNVowFDESMBAGA1UEAwwJ
bG9jYWxob3N0MIIBIjANBgkqhkiG9w0BAQEFAAOCAQ8AMIIBCgKCAQEA0h1oipyG
weo5CHZMO8nxrpJ9NUb2hulHUYdxcOjFfqEyY9NzwFm/B1rYDHu/Z0c7fulHtiiq
XBagPSQI0eg3DY4f3Je6AsPp/l+qb5QZExONmKOOYPtdm/Dt9moffh3R6HYASvX3
dJVafdTapmRBhOIMCNA8FcSILFavmRetWiC8952gF57HPxccM7ru39Ia1hasVBkJ
cbF1CI43CXdnfTkGDMOlwvAsOmPUeKt3Olksr7KC1Z47R6iom16kwaDige95knnq
q/8jKF0FrTPeSa7mq0sXzRzVnZmbDINur6OSfO4/sLJw4r+CE5CU76WEeYhsFy4n
iPOSBrBSZvqEIQIDAQABo4HHMIHEMAwGA1UdEwEB/wQCMAAwHQYDVR0OBBYEFEel
CkNY55ySifKr5axewmS9Yl8qME0GA1UdIwRGMESAFNIyX0aOaFcLEmVut/7+ienv
X0V0oRakFDASMRAwDgYDVQQDDAdkZXZjZXJ0ghQV85YEU7JzZpcmNusp+qE/6j4E
/jAOBgNVHQ8BAf8EBAMCBaAwEwYDVR0lBAwwCgYIKwYBBQUHAwEwIQYDVR0RBBow
GIIJbG9jYWxob3N0ggsqLmxvY2FsaG9zdDANBgkqhkiG9w0BAQsFAAOCAQEAWOc7
q1vqfYHBHkkzI5HDqprwtQrimkGfPtOAzMTlEjI344zioXv/csj5DkA4sbLDmIQL
YIKmzM7dHtXR64IhQZEmVLxN3hiRQepi81pKW69XnC+j4i88czO8wZKlXifK1X+b
BhRCBp8kRxUTTHFI2wTqMAoZRfAs36ZxBimIS8gcCVLrHPWpf8yDXwTqxnJ1a1GH
KWilNKHLmdiG0dWyAH4gd+ZkuSm34wkEn8UJ+u8iX8gVtRqzYQ0mX0SDR1EgOsdY
Ro4D+Gap8LuuA6kzA1hZK54hjt7Kyw/UiuZpY5V486HhTT5IETyzhg5CBba7pJLL
zYTg2oBBzAvA9ZTwVQ==
-----END CERTIFICATE-----
